; Function Attrs: mustprogress uwtable
define noundef double @_ZNK8QuantLib14FdmBatesSolver7deltaAtEdd(ptr noundef nonnull align 8 dereferenceable(192) %this, double noundef %s, double noundef %v) local_unnamed_addr #10 align 2 {
entry:
  %vtable = load ptr, ptr %this, align 8, !tbaa !33
  %vfn = getelementptr inbounds i8, ptr %vtable, i64 24
  %0 = load ptr, ptr %vfn, align 8
  tail call void %0(ptr noundef nonnull align 8 dereferenceable(12) %this)
  %solver_ = getelementptr inbounds nuw i8, ptr %this, i64 176
  %1 = load ptr, ptr %solver_, align 8, !tbaa !107
  %cmp.not.i = icmp eq ptr %1, null
  br i1 %cmp.not.i, label %cond.false.i, label %_ZNK5boost10shared_ptrIN8QuantLib13Fdm2DimSolverEEptEv.exit, !prof !53

cond.false.i:                                     ; preds = %entry
  tail call void @_ZN5boost16assertion_failedEPKcS1_S1_l(ptr noundef nonnull @.str.8, ptr noundef nonnull @__PRETTY_FUNCTION__._ZNK5boost10shared_ptrIN8QuantLib13Fdm2DimSolverEEptEv, ptr noundef nonnull @.str.9, i64 noundef 784)
  %.pre.i = load ptr, ptr %solver_, align 8, !tbaa !107
  br label %_ZNK5boost10shared_ptrIN8QuantLib13Fdm2DimSolverEEptEv.exit

_ZNK5boost10shared_ptrIN8QuantLib13Fdm2DimSolverEEptEv.exit: ; preds = %entry, %cond.false.i
  %2 = phi ptr [ %1, %entry ], [ %.pre.i, %cond.false.i ]
  %call2 = tail call double @log(double noundef %s) #26, !tbaa !114
  %call3 = tail call noundef double @_ZNK8QuantLib13Fdm2DimSolver11derivativeXEdd(ptr noundef nonnull align 8 dereferenceable(296) %2, double noundef %call2, double noundef %v)
  %div = fdiv double %call3, %s
  ret double %div
}